; Function Attrs: nounwind uwtable
define internal range(i32 -30, 1) i32 @archive_write_newc_close(ptr noundef %0) #0 {
  %2 = tail call ptr @archive_entry_new() #11
  tail call void @archive_entry_set_nlink(ptr noundef %2, i32 noundef 1) #11
  tail call void @archive_entry_set_size(ptr noundef %2, i64 noundef 0) #11
  tail call void @archive_entry_set_pathname(ptr noundef %2, ptr noundef nonnull @.str.17) #11
  %3 = tail call fastcc i32 @write_header(ptr noundef %0, ptr noundef %2)
  tail call void @archive_entry_free(ptr noundef %2) #11
  ret i32 %3
}